target datalayout = "e-m:e-p270:32:32-p271:32:32-p272:64:64-i64:64-i128:128-f80:128-n8:16:32:64-S128"
target triple = "x86_64-pc-linux-gnu"

%struct.stat = type { i64, i64, i64, i32, i32, i32, i32, i64, i64, i64, i64, %struct.timespec, %struct.timespec, %struct.timespec, [3 x i64] }
%struct.timespec = type { i64, i64 }

@.str.36 = private unnamed_addr constant [2 x i8] c"r\00", align 1
@.str.37 = private unnamed_addr constant [25 x i8] c"Cannot open file %s: %s\0A\00", align 1
@.str.38 = private unnamed_addr constant [22 x i8] c"Cannot stat file: %s\0A\00", align 1
@.str.39 = private unnamed_addr constant [6 x i8] c"REDIS\00", align 1

; Function Attrs: nounwind uwtable
define dso_local i32 @fileIsRDB(ptr noundef %0) #0 {
  %2 = alloca i32, align 4
  %3 = alloca ptr, align 8
  %4 = alloca ptr, align 8
  %5 = alloca %struct.stat, align 8
  %6 = alloca i64, align 8
  %7 = alloca i32, align 4
  %8 = alloca [5 x i8], align 1
  %9 = alloca i32, align 4
  store ptr %0, ptr %3, align 8, !tbaa !5
  call void @llvm.lifetime.start.p0(i64 8, ptr %4) #10
  %10 = load ptr, ptr %3, align 8, !tbaa !5
  %11 = call noalias ptr @fopen64(ptr noundef %10, ptr noundef @.str.36)
  store ptr %11, ptr %4, align 8, !tbaa !15
  %12 = load ptr, ptr %4, align 8, !tbaa !15
  %13 = icmp eq ptr %12, null
  br i1 %13, label %14, label %20

14:                                               ; preds = %1
  %15 = load ptr, ptr %3, align 8, !tbaa !5
  %16 = call ptr @__errno_location() #13
  %17 = load i32, ptr %16, align 4, !tbaa !23
  %18 = call ptr @strerror(i32 noundef %17) #10
  %19 = call i32 (ptr, ...) @printf(ptr noundef @.str.37, ptr noundef %15, ptr noundef %18)
  call void @exit(i32 noundef 1) #12
  unreachable

20:                                               ; preds = %1
  call void @llvm.lifetime.start.p0(i64 144, ptr %5) #10
  %21 = load ptr, ptr %4, align 8, !tbaa !15
  %22 = call i32 @fileno(ptr noundef %21) #10
  %23 = call i32 @fstat64(i32 noundef %22, ptr noundef %5) #10
  %24 = icmp eq i32 %23, -1
  br i1 %24, label %25, label %30

25:                                               ; preds = %20
  %26 = load ptr, ptr %3, align 8, !tbaa !5
  %27 = call i32 (ptr, ...) @printf(ptr noundef @.str.38, ptr noundef %26)
  %28 = load ptr, ptr %4, align 8, !tbaa !15
  %29 = call i32 @fclose(ptr noundef %28)
  call void @exit(i32 noundef 1) #12
  unreachable

30:                                               ; preds = %20
  call void @llvm.lifetime.start.p0(i64 8, ptr %6) #10
  %31 = getelementptr inbounds nuw %struct.stat, ptr %5, i32 0, i32 8
  %32 = load i64, ptr %31, align 8, !tbaa !27
  store i64 %32, ptr %6, align 8, !tbaa !11
  %33 = load i64, ptr %6, align 8, !tbaa !11
  %34 = icmp eq i64 %33, 0
  br i1 %34, label %35, label %38

35:                                               ; preds = %30
  %36 = load ptr, ptr %4, align 8, !tbaa !15
  %37 = call i32 @fclose(ptr noundef %36)
  store i32 0, ptr %2, align 4
  store i32 1, ptr %7, align 4
  br label %65

38:                                               ; preds = %30
  %39 = load i64, ptr %6, align 8, !tbaa !11
  %40 = icmp sge i64 %39, 8
  br i1 %40, label %41, label %62

41:                                               ; preds = %38
  call void @llvm.lifetime.start.p0(i64 5, ptr %8) #10
  call void @llvm.lifetime.start.p0(i64 4, ptr %9) #10
  %42 = getelementptr inbounds [5 x i8], ptr %8, i64 0, i64 0
  %43 = load ptr, ptr %4, align 8, !tbaa !15
  %44 = call i64 @fread(ptr noundef %42, i64 noundef 5, i64 noundef 1, ptr noundef %43)
  %45 = icmp eq i64 %44, 1
  br i1 %45, label %46, label %50

46:                                               ; preds = %41
  %47 = getelementptr inbounds [5 x i8], ptr %8, i64 0, i64 0
  %48 = call i32 @memcmp(ptr noundef %47, ptr noundef @.str.39, i64 noundef 5) #9
  %49 = icmp eq i32 %48, 0
  br label %50

50:                                               ; preds = %46, %41
  %51 = phi i1 [ false, %41 ], [ %49, %46 ]
  %52 = zext i1 %51 to i32
  store i32 %52, ptr %9, align 4, !tbaa !23
  %53 = load i32, ptr %9, align 4, !tbaa !23
  %54 = icmp ne i32 %53, 0
  br i1 %54, label %55, label %58

55:                                               ; preds = %50
  %56 = load ptr, ptr %4, align 8, !tbaa !15
  %57 = call i32 @fclose(ptr noundef %56)
  store i32 1, ptr %2, align 4
  store i32 1, ptr %7, align 4
  br label %59

58:                                               ; preds = %50
  store i32 0, ptr %7, align 4
  br label %59

59:                                               ; preds = %58, %55
  call void @llvm.lifetime.end.p0(i64 4, ptr %9) #10
  call void @llvm.lifetime.end.p0(i64 5, ptr %8) #10
  %60 = load i32, ptr %7, align 4
  switch i32 %60, label %65 [
    i32 0, label %61
  ]

61:                                               ; preds = %59
  br label %62

62:                                               ; preds = %61, %38
  %63 = load ptr, ptr %4, align 8, !tbaa !15
  %64 = call i32 @fclose(ptr noundef %63)
  store i32 0, ptr %2, align 4
  store i32 1, ptr %7, align 4
  br label %65

65:                                               ; preds = %62, %59, %35
  call void @llvm.lifetime.end.p0(i64 8, ptr %6) #10
  call void @llvm.lifetime.end.p0(i64 144, ptr %5) #10
  call void @llvm.lifetime.end.p0(i64 8, ptr %4) #10
  %66 = load i32, ptr %2, align 4
  ret i32 %66
}