; Function Attrs: nounwind uwtable
define dso_local range(i32 0, 2) i32 @fileIsRDB(ptr noundef %0) local_unnamed_addr #4 {
  %2 = alloca %struct.stat, align 8
  %3 = alloca [5 x i8], align 1
  %4 = tail call noalias ptr @fopen64(ptr noundef %0, ptr noundef nonnull @.str.36)
  %5 = icmp eq ptr %4, null
  br i1 %5, label %6, label %11

6:                                                ; preds = %1
  %7 = tail call ptr @__errno_location() #20
  %8 = load i32, ptr %7, align 4, !tbaa !15
  %9 = tail call ptr @strerror(i32 noundef %8) #16
  %10 = tail call i32 (ptr, ...) @printf(ptr noundef nonnull dereferenceable(1) @.str.37, ptr noundef %0, ptr noundef %9)
  tail call void @exit(i32 noundef 1) #19
  unreachable

11:                                               ; preds = %1
  call void @llvm.lifetime.start.p0(i64 144, ptr nonnull %2) #16
  %12 = tail call i32 @fileno(ptr noundef nonnull %4) #16
  %13 = call i32 @fstat64(i32 noundef %12, ptr noundef nonnull %2) #16
  %14 = icmp eq i32 %13, -1
  br i1 %14, label %15, label %18

15:                                               ; preds = %11
  %16 = tail call i32 (ptr, ...) @printf(ptr noundef nonnull dereferenceable(1) @.str.38, ptr noundef %0)
  %17 = tail call i32 @fclose(ptr noundef nonnull %4)
  tail call void @exit(i32 noundef 1) #19
  unreachable

18:                                               ; preds = %11
  %19 = getelementptr inbounds nuw i8, ptr %2, i64 48
  %20 = load i64, ptr %19, align 8, !tbaa !19
  %21 = icmp eq i64 %20, 0
  br i1 %21, label %22, label %24

22:                                               ; preds = %18
  %23 = tail call i32 @fclose(ptr noundef nonnull %4)
  br label %35

24:                                               ; preds = %18
  %25 = icmp sgt i64 %20, 7
  br i1 %25, label %26, label %33

26:                                               ; preds = %24
  call void @llvm.lifetime.start.p0(i64 5, ptr nonnull %3) #16
  %27 = call i64 @fread(ptr noundef nonnull %3, i64 noundef 5, i64 noundef 1, ptr noundef nonnull %4)
  %28 = icmp eq i64 %27, 1
  br i1 %28, label %29, label %.critedge

29:                                               ; preds = %26
  %bcmp = call i32 @bcmp(ptr noundef nonnull dereferenceable(5) %3, ptr noundef nonnull dereferenceable(5) @.str.39, i64 5)
  %30 = icmp eq i32 %bcmp, 0
  br i1 %30, label %31, label %.critedge

31:                                               ; preds = %29
  %32 = tail call i32 @fclose(ptr noundef nonnull %4)
  call void @llvm.lifetime.end.p0(i64 5, ptr nonnull %3) #16
  br label %35

.critedge:                                        ; preds = %26, %29
  call void @llvm.lifetime.end.p0(i64 5, ptr nonnull %3) #16
  br label %33

33:                                               ; preds = %.critedge, %24
  %34 = tail call i32 @fclose(ptr noundef nonnull %4)
  br label %35

35:                                               ; preds = %31, %33, %22
  %.0 = phi i32 [ 0, %22 ], [ 0, %33 ], [ 1, %31 ]
  call void @llvm.lifetime.end.p0(i64 144, ptr nonnull %2) #16
  ret i32 %.0
}